target datalayout = "e-m:e-p270:32:32-p271:32:32-p272:64:64-i64:64-i128:128-f80:128-n8:16:32:64-S128"
target triple = "x86_64-pc-linux-gnu"

; Function Attrs: nounwind uwtable
define internal i32 @rsa_match(ptr noundef %0, ptr noundef %1, i32 noundef %2) #0 {
  %4 = alloca i32, align 4
  %5 = alloca ptr, align 8
  %6 = alloca ptr, align 8
  %7 = alloca i32, align 4
  %8 = alloca ptr, align 8
  %9 = alloca ptr, align 8
  %10 = alloca i32, align 4
  %11 = alloca i32, align 4
  %12 = alloca i32, align 4
  %13 = alloca ptr, align 8
  %14 = alloca ptr, align 8
  %15 = alloca ptr, align 8
  %16 = alloca ptr, align 8
  store ptr %0, ptr %5, align 8, !tbaa !3
  store ptr %1, ptr %6, align 8, !tbaa !3
  store i32 %2, ptr %7, align 4, !tbaa !11
  call void @llvm.lifetime.start.p0(i64 8, ptr %8) #6
  %17 = load ptr, ptr %5, align 8, !tbaa !3
  store ptr %17, ptr %8, align 8, !tbaa !9
  call void @llvm.lifetime.start.p0(i64 8, ptr %9) #6
  %18 = load ptr, ptr %6, align 8, !tbaa !3
  store ptr %18, ptr %9, align 8, !tbaa !9
  call void @llvm.lifetime.start.p0(i64 4, ptr %10) #6
  store i32 1, ptr %10, align 4, !tbaa !11
  %19 = call i32 @ossl_prov_is_running()
  %20 = icmp ne i32 %19, 0
  br i1 %20, label %22, label %21

21:                                               ; preds = %3
  store i32 0, ptr %4, align 4
  store i32 1, ptr %11, align 4
  br label %104

22:                                               ; preds = %3
  %23 = load i32, ptr %10, align 4, !tbaa !11
  %24 = icmp ne i32 %23, 0
  br i1 %24, label %25, label %32

25:                                               ; preds = %22
  %26 = load ptr, ptr %8, align 8, !tbaa !9
  %27 = call ptr @RSA_get0_e(ptr noundef %26)
  %28 = load ptr, ptr %9, align 8, !tbaa !9
  %29 = call ptr @RSA_get0_e(ptr noundef %28)
  %30 = call i32 @BN_cmp(ptr noundef %27, ptr noundef %29)
  %31 = icmp eq i32 %30, 0
  br label %32

32:                                               ; preds = %25, %22
  %33 = phi i1 [ false, %22 ], [ %31, %25 ]
  %34 = zext i1 %33 to i32
  store i32 %34, ptr %10, align 4, !tbaa !11
  %35 = load i32, ptr %7, align 4, !tbaa !11
  %36 = and i32 %35, 3
  %37 = icmp ne i32 %36, 0
  br i1 %37, label %38, label %102

38:                                               ; preds = %32
  call void @llvm.lifetime.start.p0(i64 4, ptr %12) #6
  store i32 0, ptr %12, align 4, !tbaa !11
  %39 = load i32, ptr %7, align 4, !tbaa !11
  %40 = and i32 %39, 2
  %41 = icmp ne i32 %40, 0
  br i1 %41, label %42, label %64

42:                                               ; preds = %38
  call void @llvm.lifetime.start.p0(i64 8, ptr %13) #6
  %43 = load ptr, ptr %8, align 8, !tbaa !9
  %44 = call ptr @RSA_get0_n(ptr noundef %43)
  store ptr %44, ptr %13, align 8, !tbaa !36
  call void @llvm.lifetime.start.p0(i64 8, ptr %14) #6
  %45 = load ptr, ptr %9, align 8, !tbaa !9
  %46 = call ptr @RSA_get0_n(ptr noundef %45)
  store ptr %46, ptr %14, align 8, !tbaa !36
  %47 = load ptr, ptr %13, align 8, !tbaa !36
  %48 = icmp ne ptr %47, null
  br i1 %48, label %49, label %63

49:                                               ; preds = %42
  %50 = load ptr, ptr %14, align 8, !tbaa !36
  %51 = icmp ne ptr %50, null
  br i1 %51, label %52, label %63

52:                                               ; preds = %49
  %53 = load i32, ptr %10, align 4, !tbaa !11
  %54 = icmp ne i32 %53, 0
  br i1 %54, label %55, label %60

55:                                               ; preds = %52
  %56 = load ptr, ptr %13, align 8, !tbaa !36
  %57 = load ptr, ptr %14, align 8, !tbaa !36
  %58 = call i32 @BN_cmp(ptr noundef %56, ptr noundef %57)
  %59 = icmp eq i32 %58, 0
  br label %60

60:                                               ; preds = %55, %52
  %61 = phi i1 [ false, %52 ], [ %59, %55 ]
  %62 = zext i1 %61 to i32
  store i32 %62, ptr %10, align 4, !tbaa !11
  store i32 1, ptr %12, align 4, !tbaa !11
  br label %63

63:                                               ; preds = %60, %49, %42
  call void @llvm.lifetime.end.p0(i64 8, ptr %14) #6
  call void @llvm.lifetime.end.p0(i64 8, ptr %13) #6
  br label %64

64:                                               ; preds = %63, %38
  %65 = load i32, ptr %12, align 4, !tbaa !11
  %66 = icmp ne i32 %65, 0
  br i1 %66, label %93, label %67

67:                                               ; preds = %64
  %68 = load i32, ptr %7, align 4, !tbaa !11
  %69 = and i32 %68, 1
  %70 = icmp ne i32 %69, 0
  br i1 %70, label %71, label %93

71:                                               ; preds = %67
  call void @llvm.lifetime.start.p0(i64 8, ptr %15) #6
  %72 = load ptr, ptr %8, align 8, !tbaa !9
  %73 = call ptr @RSA_get0_d(ptr noundef %72)
  store ptr %73, ptr %15, align 8, !tbaa !36
  call void @llvm.lifetime.start.p0(i64 8, ptr %16) #6
  %74 = load ptr, ptr %9, align 8, !tbaa !9
  %75 = call ptr @RSA_get0_d(ptr noundef %74)
  store ptr %75, ptr %16, align 8, !tbaa !36
  %76 = load ptr, ptr %15, align 8, !tbaa !36
  %77 = icmp ne ptr %76, null
  br i1 %77, label %78, label %92

78:                                               ; preds = %71
  %79 = load ptr, ptr %16, align 8, !tbaa !36
  %80 = icmp ne ptr %79, null
  br i1 %80, label %81, label %92

81:                                               ; preds = %78
  %82 = load i32, ptr %10, align 4, !tbaa !11
  %83 = icmp ne i32 %82, 0
  br i1 %83, label %84, label %89

84:                                               ; preds = %81
  %85 = load ptr, ptr %15, align 8, !tbaa !36
  %86 = load ptr, ptr %16, align 8, !tbaa !36
  %87 = call i32 @BN_cmp(ptr noundef %85, ptr noundef %86)
  %88 = icmp eq i32 %87, 0
  br label %89

89:                                               ; preds = %84, %81
  %90 = phi i1 [ false, %81 ], [ %88, %84 ]
  %91 = zext i1 %90 to i32
  store i32 %91, ptr %10, align 4, !tbaa !11
  store i32 1, ptr %12, align 4, !tbaa !11
  br label %92

92:                                               ; preds = %89, %78, %71
  call void @llvm.lifetime.end.p0(i64 8, ptr %16) #6
  call void @llvm.lifetime.end.p0(i64 8, ptr %15) #6
  br label %93

93:                                               ; preds = %92, %67, %64
  %94 = load i32, ptr %10, align 4, !tbaa !11
  %95 = icmp ne i32 %94, 0
  br i1 %95, label %96, label %99

96:                                               ; preds = %93
  %97 = load i32, ptr %12, align 4, !tbaa !11
  %98 = icmp ne i32 %97, 0
  br label %99

99:                                               ; preds = %96, %93
  %100 = phi i1 [ false, %93 ], [ %98, %96 ]
  %101 = zext i1 %100 to i32
  store i32 %101, ptr %10, align 4, !tbaa !11
  call void @llvm.lifetime.end.p0(i64 4, ptr %12) #6
  br label %102

102:                                              ; preds = %99, %32
  %103 = load i32, ptr %10, align 4, !tbaa !11
  store i32 %103, ptr %4, align 4
  store i32 1, ptr %11, align 4
  br label %104

104:                                              ; preds = %102, %21
  call void @llvm.lifetime.end.p0(i64 4, ptr %10) #6
  call void @llvm.lifetime.end.p0(i64 8, ptr %9) #6
  call void @llvm.lifetime.end.p0(i64 8, ptr %8) #6
  %105 = load i32, ptr %4, align 4
  ret i32 %105
}